; Function Attrs: mustprogress uwtable
define hidden void @_ZN3sat3big6reinitEv(ptr noundef nonnull align 8 dereferenceable(80) %this) local_unnamed_addr #4 align 2 {
entry:
  %m_dag.i = getelementptr inbounds i8, ptr %this, i64 16
  %0 = load ptr, ptr %m_dag.i, align 8
  %cmp.i.i.i = icmp eq ptr %0, null
  br i1 %cmp.i.i.i, label %_ZN3sat3big17done_adding_edgesEv.exit, label %_ZN6vectorI7svectorIN3sat7literalEjELb1EjE3endEv.exit.i

_ZN6vectorI7svectorIN3sat7literalEjELb1EjE3endEv.exit.i: ; preds = %entry
  %arrayidx.i.i.i = getelementptr inbounds i8, ptr %0, i64 -4
  %1 = load i32, ptr %arrayidx.i.i.i, align 4
  %2 = zext i32 %1 to i64
  %add.ptr.i.i = getelementptr inbounds %class.svector.3, ptr %0, i64 %2
  %cmp.not9.i = icmp eq i32 %1, 0
  br i1 %cmp.not9.i, label %_ZN3sat3big17done_adding_edgesEv.exit, label %for.body.i

for.body.i:                                       ; preds = %_ZN6vectorI7svectorIN3sat7literalEjELb1EjE3endEv.exit.i, %_Z7shuffleIN3sat7literalEEvjPT_R10random_gen.exit.i
  %__begin1.010.i = phi ptr [ %incdec.ptr.i, %_Z7shuffleIN3sat7literalEEvjPT_R10random_gen.exit.i ], [ %0, %_ZN6vectorI7svectorIN3sat7literalEjELb1EjE3endEv.exit.i ]
  %3 = load ptr, ptr %__begin1.010.i, align 8
  %cmp.i.i = icmp eq ptr %3, null
  br i1 %cmp.i.i, label %_Z7shuffleIN3sat7literalEEvjPT_R10random_gen.exit.i, label %_ZNK6vectorIN3sat7literalELb0EjE4sizeEv.exit.i

_ZNK6vectorIN3sat7literalELb0EjE4sizeEv.exit.i:   ; preds = %for.body.i
  %arrayidx.i.i = getelementptr inbounds i8, ptr %3, i64 -4
  %4 = load i32, ptr %arrayidx.i.i, align 4
  %5 = load ptr, ptr %this, align 8
  %cmp5.i.i = icmp sgt i32 %4, 1
  br i1 %cmp5.i.i, label %while.body.preheader.i.i, label %_Z7shuffleIN3sat7literalEEvjPT_R10random_gen.exit.i

while.body.preheader.i.i:                         ; preds = %_ZNK6vectorIN3sat7literalELb0EjE4sizeEv.exit.i
  %6 = zext nneg i32 %4 to i64
  br label %while.body.i.i

while.body.i.i:                                   ; preds = %while.body.i.i, %while.body.preheader.i.i
  %indvars.iv.i.i = phi i64 [ %6, %while.body.preheader.i.i ], [ %indvars.iv.next.i.i, %while.body.i.i ]
  %indvars.iv.next.i.i = add nsw i64 %indvars.iv.i.i, -1
  %7 = load i32, ptr %5, align 4
  %mul.i.i.i = mul i32 %7, 214013
  %add.i.i.i = add i32 %mul.i.i.i, 2531011
  store i32 %add.i.i.i, ptr %5, align 4
  %shr.i.i.i = lshr i32 %add.i.i.i, 16
  %and.i.i.i = and i32 %shr.i.i.i, 32767
  %8 = trunc i64 %indvars.iv.i.i to i32
  %rem4.i.i = urem i32 %and.i.i.i, %8
  %arrayidx.i5.i = getelementptr inbounds %"class.sat::literal", ptr %3, i64 %indvars.iv.next.i.i
  %idxprom1.i.i = zext nneg i32 %rem4.i.i to i64
  %arrayidx2.i.i = getelementptr inbounds %"class.sat::literal", ptr %3, i64 %idxprom1.i.i
  %__tmp.sroa.0.0.copyload.i.i.i = load i32, ptr %arrayidx.i5.i, align 4
  %9 = load i32, ptr %arrayidx2.i.i, align 4
  store i32 %9, ptr %arrayidx.i5.i, align 4
  store i32 %__tmp.sroa.0.0.copyload.i.i.i, ptr %arrayidx2.i.i, align 4
  %cmp.i6.i = icmp ugt i64 %indvars.iv.i.i, 2
  br i1 %cmp.i6.i, label %while.body.i.i, label %_Z7shuffleIN3sat7literalEEvjPT_R10random_gen.exit.i, !llvm.loop !7

_Z7shuffleIN3sat7literalEEvjPT_R10random_gen.exit.i: ; preds = %while.body.i.i, %_ZNK6vectorIN3sat7literalELb0EjE4sizeEv.exit.i, %for.body.i
  %incdec.ptr.i = getelementptr inbounds i8, ptr %__begin1.010.i, i64 8
  %cmp.not.i = icmp eq ptr %incdec.ptr.i, %add.ptr.i.i
  br i1 %cmp.not.i, label %_ZN3sat3big17done_adding_edgesEv.exit, label %for.body.i

_ZN3sat3big17done_adding_edgesEv.exit:            ; preds = %_Z7shuffleIN3sat7literalEEvjPT_R10random_gen.exit.i, %entry, %_ZN6vectorI7svectorIN3sat7literalEjELb1EjE3endEv.exit.i
  tail call void @_ZN3sat3big12init_dfs_numEv(ptr noundef nonnull align 8 dereferenceable(80) %this)
  ret void
}